
main.elf:     file format elf64-littleaarch64


Disassembly of section .text:

0000000000000800 <_start-0x800>:
     800:	14000201 	b	1004 <hang>
	...
     900:	140001c1 	b	1004 <hang>
	...
     a00:	14000181 	b	1004 <hang>
	...
     b00:	14000141 	b	1004 <hang>
	...
     c00:	14000101 	b	1004 <hang>
	...
     d00:	140000c1 	b	1004 <hang>
	...
     e00:	14000081 	b	1004 <hang>
	...

0000000000001000 <_start>:
    1000:	940001ac 	bl	16b0 <c0_main>

0000000000001004 <hang>:
    1004:	14000000 	b	1004 <hang>

0000000000001008 <put32.constprop.2>:
    1008:	b9000001 	str	w1, [x0]
    100c:	d65f03c0 	ret

0000000000001010 <put32.constprop.3>:
    1010:	b9000001 	str	w1, [x0]
    1014:	d65f03c0 	ret

0000000000001018 <put32.constprop.4>:
    1018:	b9000001 	str	w1, [x0]
    101c:	d65f03c0 	ret

0000000000001020 <put32.constprop.5>:
    1020:	b9000001 	str	w1, [x0]
    1024:	d65f03c0 	ret

0000000000001028 <put32.constprop.6>:
    1028:	b9000001 	str	w1, [x0]
    102c:	d65f03c0 	ret

0000000000001030 <put32>:
    1030:	b9000001 	str	w1, [x0]
    1034:	d65f03c0 	ret

0000000000001038 <get32>:
    1038:	b9400000 	ldr	w0, [x0]
    103c:	d65f03c0 	ret

0000000000001040 <put8>:
    1040:	53001c21 	uxtb	w1, w1
    1044:	2a0003e0 	mov	w0, w0
    1048:	39000001 	strb	w1, [x0]
    104c:	d65f03c0 	ret

0000000000001050 <get8>:
    1050:	2a0003e0 	mov	w0, w0
    1054:	39400000 	ldrb	w0, [x0]
    1058:	d65f03c0 	ret

000000000000105c <initializeCore>:
    105c:	a9bf7bfd 	stp	x29, x30, [sp,#-16]!
    1060:	121c7802 	and	w2, w0, #0xfffffff7
    1064:	7114105f 	cmp	w2, #0x504
    1068:	910003fd 	mov	x29, sp
    106c:	540000e0 	b.eq	1088 <initializeCore+0x2c>
    1070:	7114201f 	cmp	w0, #0x508
    1074:	52800022 	mov	w2, #0x1                   	// #1
    1078:	54000080 	b.eq	1088 <initializeCore+0x2c>
    107c:	2a0203e0 	mov	w0, w2
    1080:	a8c17bfd 	ldp	x29, x30, [sp],#16
    1084:	d65f03c0 	ret
    1088:	97ffffea 	bl	1030 <put32>
    108c:	52800002 	mov	w2, #0x0                   	// #0
    1090:	2a0203e0 	mov	w0, w2
    1094:	a8c17bfd 	ldp	x29, x30, [sp],#16
    1098:	d65f03c0 	ret

000000000000109c <gpio_fsel>:
    109c:	a9bd7bfd 	stp	x29, x30, [sp,#-48]!
    10a0:	910003fd 	mov	x29, sp
    10a4:	a90153f3 	stp	x19, x20, [sp,#16]
    10a8:	53001c13 	uxtb	w19, w0
    10ac:	7100c67f 	cmp	w19, #0x31
    10b0:	53001c34 	uxtb	w20, w1
    10b4:	54000388 	b.hi	1124 <gpio_fsel+0x88>
    10b8:	71009e7f 	cmp	w19, #0x27
    10bc:	540007e8 	b.hi	11b8 <gpio_fsel+0x11c>
    10c0:	7100767f 	cmp	w19, #0x1d
    10c4:	540005c8 	b.hi	117c <gpio_fsel+0xe0>
    10c8:	71004e7f 	cmp	w19, #0x13
    10cc:	54000b28 	b.hi	1230 <gpio_fsel+0x194>
    10d0:	7100267f 	cmp	w19, #0x9
    10d4:	54000908 	b.hi	11f4 <gpio_fsel+0x158>
    10d8:	52a7e400 	mov	w0, #0x3f200000            	// #1059061760
    10dc:	0b130673 	add	w19, w19, w19, lsl #1
    10e0:	97ffffd6 	bl	1038 <get32>
    10e4:	b9002fa0 	str	w0, [x29,#44]
    10e8:	528000e0 	mov	w0, #0x7                   	// #7
    10ec:	b9402fa1 	ldr	w1, [x29,#44]
    10f0:	1ad32000 	lsl	w0, w0, w19
    10f4:	0a200020 	bic	w0, w1, w0
    10f8:	b9002fa0 	str	w0, [x29,#44]
    10fc:	1ad32293 	lsl	w19, w20, w19
    1100:	b9402fa1 	ldr	w1, [x29,#44]
    1104:	52a7e400 	mov	w0, #0x3f200000            	// #1059061760
    1108:	2a010273 	orr	w19, w19, w1
    110c:	b9002fb3 	str	w19, [x29,#44]
    1110:	b9402fa1 	ldr	w1, [x29,#44]
    1114:	97ffffc7 	bl	1030 <put32>
    1118:	a94153f3 	ldp	x19, x20, [sp,#16]
    111c:	a8c37bfd 	ldp	x29, x30, [sp],#48
    1120:	d65f03c0 	ret
    1124:	52800280 	mov	w0, #0x14                  	// #20
    1128:	72a7e400 	movk	w0, #0x3f20, lsl #16
    112c:	5100ca73 	sub	w19, w19, #0x32
    1130:	97ffffc2 	bl	1038 <get32>
    1134:	b9002fa0 	str	w0, [x29,#44]
    1138:	0b130673 	add	w19, w19, w19, lsl #1
    113c:	b9402fa1 	ldr	w1, [x29,#44]
    1140:	528000e0 	mov	w0, #0x7                   	// #7
    1144:	1ad32000 	lsl	w0, w0, w19
    1148:	0a200020 	bic	w0, w1, w0
    114c:	b9002fa0 	str	w0, [x29,#44]
    1150:	1ad32293 	lsl	w19, w20, w19
    1154:	b9402fa1 	ldr	w1, [x29,#44]
    1158:	52800280 	mov	w0, #0x14                  	// #20
    115c:	2a010273 	orr	w19, w19, w1
    1160:	b9002fb3 	str	w19, [x29,#44]
    1164:	72a7e400 	movk	w0, #0x3f20, lsl #16
    1168:	b9402fa1 	ldr	w1, [x29,#44]
    116c:	97ffffb1 	bl	1030 <put32>
    1170:	a94153f3 	ldp	x19, x20, [sp,#16]
    1174:	a8c37bfd 	ldp	x29, x30, [sp],#48
    1178:	d65f03c0 	ret
    117c:	52800180 	mov	w0, #0xc                   	// #12
    1180:	72a7e400 	movk	w0, #0x3f20, lsl #16
    1184:	51007a73 	sub	w19, w19, #0x1e
    1188:	97ffffac 	bl	1038 <get32>
    118c:	b9002fa0 	str	w0, [x29,#44]
    1190:	0b130673 	add	w19, w19, w19, lsl #1
    1194:	b9402fa1 	ldr	w1, [x29,#44]
    1198:	528000e0 	mov	w0, #0x7                   	// #7
    119c:	1ad32000 	lsl	w0, w0, w19
    11a0:	0a200020 	bic	w0, w1, w0
    11a4:	b9002fa0 	str	w0, [x29,#44]
    11a8:	1ad32293 	lsl	w19, w20, w19
    11ac:	b9402fa1 	ldr	w1, [x29,#44]
    11b0:	52800180 	mov	w0, #0xc                   	// #12
    11b4:	17ffffea 	b	115c <gpio_fsel+0xc0>
    11b8:	52800200 	mov	w0, #0x10                  	// #16
    11bc:	72a7e400 	movk	w0, #0x3f20, lsl #16
    11c0:	5100a273 	sub	w19, w19, #0x28
    11c4:	97ffff9d 	bl	1038 <get32>
    11c8:	b9002fa0 	str	w0, [x29,#44]
    11cc:	0b130673 	add	w19, w19, w19, lsl #1
    11d0:	b9402fa1 	ldr	w1, [x29,#44]
    11d4:	528000e0 	mov	w0, #0x7                   	// #7
    11d8:	1ad32000 	lsl	w0, w0, w19
    11dc:	0a200020 	bic	w0, w1, w0
    11e0:	b9002fa0 	str	w0, [x29,#44]
    11e4:	1ad32293 	lsl	w19, w20, w19
    11e8:	b9402fa1 	ldr	w1, [x29,#44]
    11ec:	52800200 	mov	w0, #0x10                  	// #16
    11f0:	17ffffdb 	b	115c <gpio_fsel+0xc0>
    11f4:	52800080 	mov	w0, #0x4                   	// #4
    11f8:	72a7e400 	movk	w0, #0x3f20, lsl #16
    11fc:	51002a73 	sub	w19, w19, #0xa
    1200:	97ffff8e 	bl	1038 <get32>
    1204:	b9002fa0 	str	w0, [x29,#44]
    1208:	0b130673 	add	w19, w19, w19, lsl #1
    120c:	b9402fa1 	ldr	w1, [x29,#44]
    1210:	528000e0 	mov	w0, #0x7                   	// #7
    1214:	1ad32000 	lsl	w0, w0, w19
    1218:	0a200020 	bic	w0, w1, w0
    121c:	b9002fa0 	str	w0, [x29,#44]
    1220:	1ad32293 	lsl	w19, w20, w19
    1224:	b9402fa1 	ldr	w1, [x29,#44]
    1228:	52800080 	mov	w0, #0x4                   	// #4
    122c:	17ffffcc 	b	115c <gpio_fsel+0xc0>
    1230:	52800100 	mov	w0, #0x8                   	// #8
    1234:	72a7e400 	movk	w0, #0x3f20, lsl #16
    1238:	51005273 	sub	w19, w19, #0x14
    123c:	97ffff7f 	bl	1038 <get32>
    1240:	b9002fa0 	str	w0, [x29,#44]
    1244:	0b130673 	add	w19, w19, w19, lsl #1
    1248:	b9402fa1 	ldr	w1, [x29,#44]
    124c:	528000e0 	mov	w0, #0x7                   	// #7
    1250:	1ad32000 	lsl	w0, w0, w19
    1254:	0a200020 	bic	w0, w1, w0
    1258:	b9002fa0 	str	w0, [x29,#44]
    125c:	1ad32293 	lsl	w19, w20, w19
    1260:	b9402fa1 	ldr	w1, [x29,#44]
    1264:	52800100 	mov	w0, #0x8                   	// #8
    1268:	17ffffbd 	b	115c <gpio_fsel+0xc0>

000000000000126c <gpio_write>:
    126c:	53001c02 	uxtb	w2, w0
    1270:	71007c5f 	cmp	w2, #0x1f
    1274:	53001c21 	uxtb	w1, w1
    1278:	54000129 	b.ls	129c <gpio_write+0x30>
    127c:	7100043f 	cmp	w1, #0x1
    1280:	51008042 	sub	w2, w2, #0x20
    1284:	540001a0 	b.eq	12b8 <gpio_write+0x4c>
    1288:	52800580 	mov	w0, #0x2c                  	// #44
    128c:	52800021 	mov	w1, #0x1                   	// #1
    1290:	72a7e400 	movk	w0, #0x3f20, lsl #16
    1294:	1ac22021 	lsl	w1, w1, w2
    1298:	17ffff66 	b	1030 <put32>
    129c:	7100043f 	cmp	w1, #0x1
    12a0:	54000140 	b.eq	12c8 <gpio_write+0x5c>
    12a4:	52800500 	mov	w0, #0x28                  	// #40
    12a8:	52800021 	mov	w1, #0x1                   	// #1
    12ac:	72a7e400 	movk	w0, #0x3f20, lsl #16
    12b0:	1ac22021 	lsl	w1, w1, w2
    12b4:	17ffff5f 	b	1030 <put32>
    12b8:	52800400 	mov	w0, #0x20                  	// #32
    12bc:	72a7e400 	movk	w0, #0x3f20, lsl #16
    12c0:	1ac22021 	lsl	w1, w1, w2
    12c4:	17ffff5b 	b	1030 <put32>
    12c8:	52800380 	mov	w0, #0x1c                  	// #28
    12cc:	72a7e400 	movk	w0, #0x3f20, lsl #16
    12d0:	1ac22021 	lsl	w1, w1, w2
    12d4:	17ffff57 	b	1030 <put32>

00000000000012d8 <gpio_read>:
    12d8:	a9bd7bfd 	stp	x29, x30, [sp,#-48]!
    12dc:	910003fd 	mov	x29, sp
    12e0:	f9000bf3 	str	x19, [sp,#16]
    12e4:	53001c13 	uxtb	w19, w0
    12e8:	71007e7f 	cmp	w19, #0x1f
    12ec:	54000229 	b.ls	1330 <gpio_read+0x58>
    12f0:	52800700 	mov	w0, #0x38                  	// #56
    12f4:	72a7e400 	movk	w0, #0x3f20, lsl #16
    12f8:	51008273 	sub	w19, w19, #0x20
    12fc:	97ffff4f 	bl	1038 <get32>
    1300:	b9002fa0 	str	w0, [x29,#44]
    1304:	b9402fa0 	ldr	w0, [x29,#44]
    1308:	52800021 	mov	w1, #0x1                   	// #1
    130c:	1ad32033 	lsl	w19, w1, w19
    1310:	0a000273 	and	w19, w19, w0
    1314:	b9002fb3 	str	w19, [x29,#44]
    1318:	f9400bf3 	ldr	x19, [sp,#16]
    131c:	b9402fa0 	ldr	w0, [x29,#44]
    1320:	a8c37bfd 	ldp	x29, x30, [sp],#48
    1324:	6b1f001f 	cmp	w0, wzr
    1328:	1a9f07e0 	cset	w0, ne
    132c:	d65f03c0 	ret
    1330:	52800680 	mov	w0, #0x34                  	// #52
    1334:	72a7e400 	movk	w0, #0x3f20, lsl #16
    1338:	97ffff40 	bl	1038 <get32>
    133c:	b9002fa0 	str	w0, [x29,#44]
    1340:	17fffff1 	b	1304 <gpio_read+0x2c>

0000000000001344 <gpio_pullx>:
    1344:	a9be7bfd 	stp	x29, x30, [sp,#-32]!
    1348:	53001c21 	uxtb	w1, w1
    134c:	910003fd 	mov	x29, sp
    1350:	f9000bf3 	str	x19, [sp,#16]
    1354:	53001c13 	uxtb	w19, w0
    1358:	52801280 	mov	w0, #0x94                  	// #148
    135c:	72a7e400 	movk	w0, #0x3f20, lsl #16
    1360:	97ffff34 	bl	1030 <put32>
    1364:	71007e7f 	cmp	w19, #0x1f
    1368:	528012c2 	mov	w2, #0x96                  	// #150
    136c:	54000249 	b.ls	13b4 <gpio_pullx+0x70>
    1370:	d503201f 	nop
    1374:	71000442 	subs	w2, w2, #0x1
    1378:	54ffffc1 	b.ne	1370 <gpio_pullx+0x2c>
    137c:	51008273 	sub	w19, w19, #0x20
    1380:	52801380 	mov	w0, #0x9c                  	// #156
    1384:	52800021 	mov	w1, #0x1                   	// #1
    1388:	72a7e400 	movk	w0, #0x3f20, lsl #16
    138c:	1ad32021 	lsl	w1, w1, w19
    1390:	97ffff28 	bl	1030 <put32>
    1394:	528012c0 	mov	w0, #0x96                  	// #150
    1398:	d503201f 	nop
    139c:	71000400 	subs	w0, w0, #0x1
    13a0:	54ffffc1 	b.ne	1398 <gpio_pullx+0x54>
    13a4:	97ffff1f 	bl	1020 <put32.constprop.5>
    13a8:	f9400bf3 	ldr	x19, [sp,#16]
    13ac:	a8c27bfd 	ldp	x29, x30, [sp],#32
    13b0:	17ffff1c 	b	1020 <put32.constprop.5>
    13b4:	d503201f 	nop
    13b8:	71000442 	subs	w2, w2, #0x1
    13bc:	54ffffc1 	b.ne	13b4 <gpio_pullx+0x70>
    13c0:	52801300 	mov	w0, #0x98                  	// #152
    13c4:	52800021 	mov	w1, #0x1                   	// #1
    13c8:	72a7e400 	movk	w0, #0x3f20, lsl #16
    13cc:	1ad32021 	lsl	w1, w1, w19
    13d0:	97ffff18 	bl	1030 <put32>
    13d4:	528012c0 	mov	w0, #0x96                  	// #150
    13d8:	d503201f 	nop
    13dc:	71000400 	subs	w0, w0, #0x1
    13e0:	54ffffc1 	b.ne	13d8 <gpio_pullx+0x94>
    13e4:	97ffff0f 	bl	1020 <put32.constprop.5>
    13e8:	f9400bf3 	ldr	x19, [sp,#16]
    13ec:	a8c27bfd 	ldp	x29, x30, [sp],#32
    13f0:	17ffff0c 	b	1020 <put32.constprop.5>

00000000000013f4 <uart_lcr>:
    13f4:	528a0a80 	mov	w0, #0x5054                	// #20564
    13f8:	72a7e420 	movk	w0, #0x3f21, lsl #16
    13fc:	17ffff0f 	b	1038 <get32>

0000000000001400 <uart_recv>:
    1400:	a9bf7bfd 	stp	x29, x30, [sp,#-16]!
    1404:	910003fd 	mov	x29, sp
    1408:	528a0a80 	mov	w0, #0x5054                	// #20564
    140c:	72a7e420 	movk	w0, #0x3f21, lsl #16
    1410:	97ffff0a 	bl	1038 <get32>
    1414:	3607ffa0 	tbz	w0, #0, 1408 <uart_recv+0x8>
    1418:	528a0800 	mov	w0, #0x5040                	// #20544
    141c:	72a7e420 	movk	w0, #0x3f21, lsl #16
    1420:	97ffff06 	bl	1038 <get32>
    1424:	a8c17bfd 	ldp	x29, x30, [sp],#16
    1428:	d65f03c0 	ret

000000000000142c <uart_check>:
    142c:	a9bf7bfd 	stp	x29, x30, [sp,#-16]!
    1430:	528a0a80 	mov	w0, #0x5054                	// #20564
    1434:	910003fd 	mov	x29, sp
    1438:	72a7e420 	movk	w0, #0x3f21, lsl #16
    143c:	97fffeff 	bl	1038 <get32>
    1440:	a8c17bfd 	ldp	x29, x30, [sp],#16
    1444:	12000000 	and	w0, w0, #0x1
    1448:	d65f03c0 	ret

000000000000144c <uart_putc>:
    144c:	a9be7bfd 	stp	x29, x30, [sp,#-32]!
    1450:	910003fd 	mov	x29, sp
    1454:	f9000bf3 	str	x19, [sp,#16]
    1458:	53001c13 	uxtb	w19, w0
    145c:	528a0a80 	mov	w0, #0x5054                	// #20564
    1460:	72a7e420 	movk	w0, #0x3f21, lsl #16
    1464:	97fffef5 	bl	1038 <get32>
    1468:	362fffa0 	tbz	w0, #5, 145c <uart_putc+0x10>
    146c:	2a1303e1 	mov	w1, w19
    1470:	528a0800 	mov	w0, #0x5040                	// #20544
    1474:	f9400bf3 	ldr	x19, [sp,#16]
    1478:	a8c27bfd 	ldp	x29, x30, [sp],#32
    147c:	72a7e420 	movk	w0, #0x3f21, lsl #16
    1480:	17fffeec 	b	1030 <put32>

0000000000001484 <uart_puts>:
    1484:	a9be7bfd 	stp	x29, x30, [sp,#-32]!
    1488:	910003fd 	mov	x29, sp
    148c:	f9000bf3 	str	x19, [sp,#16]
    1490:	aa0003f3 	mov	x19, x0
    1494:	39400000 	ldrb	w0, [x0]
    1498:	34000160 	cbz	w0, 14c4 <uart_puts+0x40>
    149c:	528a0a80 	mov	w0, #0x5054                	// #20564
    14a0:	72a7e420 	movk	w0, #0x3f21, lsl #16
    14a4:	97fffee5 	bl	1038 <get32>
    14a8:	362fffa0 	tbz	w0, #5, 149c <uart_puts+0x18>
    14ac:	38401661 	ldrb	w1, [x19],#1
    14b0:	528a0800 	mov	w0, #0x5040                	// #20544
    14b4:	72a7e420 	movk	w0, #0x3f21, lsl #16
    14b8:	97fffede 	bl	1030 <put32>
    14bc:	39400260 	ldrb	w0, [x19]
    14c0:	35fffee0 	cbnz	w0, 149c <uart_puts+0x18>
    14c4:	f9400bf3 	ldr	x19, [sp,#16]
    14c8:	a8c27bfd 	ldp	x29, x30, [sp],#32
    14cc:	d65f03c0 	ret

00000000000014d0 <c3_main>:
    14d0:	a9bf7bfd 	stp	x29, x30, [sp,#-16]!
    14d4:	90000000 	adrp	x0, 1000 <_start>
    14d8:	910003fd 	mov	x29, sp
    14dc:	911c4000 	add	x0, x0, #0x710
    14e0:	97ffffe9 	bl	1484 <uart_puts>
    14e4:	14000000 	b	14e4 <c3_main+0x14>

00000000000014e8 <c2_main>:
    14e8:	a9bf7bfd 	stp	x29, x30, [sp,#-16]!
    14ec:	90000000 	adrp	x0, 1000 <_start>
    14f0:	910003fd 	mov	x29, sp
    14f4:	911ca000 	add	x0, x0, #0x728
    14f8:	97ffffe3 	bl	1484 <uart_puts>
    14fc:	90000001 	adrp	x1, 1000 <_start>
    1500:	5280a180 	mov	w0, #0x50c                 	// #1292
    1504:	91134021 	add	x1, x1, #0x4d0
    1508:	97fffeca 	bl	1030 <put32>
    150c:	14000000 	b	150c <c2_main+0x24>

0000000000001510 <c1_main>:
    1510:	a9bf7bfd 	stp	x29, x30, [sp,#-16]!
    1514:	90000000 	adrp	x0, 1000 <_start>
    1518:	910003fd 	mov	x29, sp
    151c:	911d0000 	add	x0, x0, #0x740
    1520:	97ffffd9 	bl	1484 <uart_puts>
    1524:	90000001 	adrp	x1, 1000 <_start>
    1528:	5280a100 	mov	w0, #0x508                 	// #1288
    152c:	9113a021 	add	x1, x1, #0x4e8
    1530:	97fffec0 	bl	1030 <put32>
    1534:	14000000 	b	1534 <c1_main+0x24>

0000000000001538 <uart_flush>:
    1538:	a9bf7bfd 	stp	x29, x30, [sp,#-16]!
    153c:	910003fd 	mov	x29, sp
    1540:	528a0a80 	mov	w0, #0x5054                	// #20564
    1544:	72a7e420 	movk	w0, #0x3f21, lsl #16
    1548:	97fffebc 	bl	1038 <get32>
    154c:	3747ffa0 	tbnz	w0, #8, 1540 <uart_flush+0x8>
    1550:	a8c17bfd 	ldp	x29, x30, [sp],#16
    1554:	d65f03c0 	ret

0000000000001558 <uart_puthex>:
    1558:	a9bd7bfd 	stp	x29, x30, [sp,#-48]!
    155c:	910003fd 	mov	x29, sp
    1560:	a90153f3 	stp	x19, x20, [sp,#16]
    1564:	f90013f5 	str	x21, [sp,#32]
    1568:	52800413 	mov	w19, #0x20                  	// #32
    156c:	2a0003f5 	mov	w21, w0
    1570:	51001273 	sub	w19, w19, #0x4
    1574:	1ad326a2 	lsr	w2, w21, w19
    1578:	12000c42 	and	w2, w2, #0xf
    157c:	1100dc41 	add	w1, w2, #0x37
    1580:	1100c054 	add	w20, w2, #0x30
    1584:	7100285f 	cmp	w2, #0xa
    1588:	1a813294 	csel	w20, w20, w1, cc
    158c:	528a0a80 	mov	w0, #0x5054                	// #20564
    1590:	72a7e420 	movk	w0, #0x3f21, lsl #16
    1594:	97fffea9 	bl	1038 <get32>
    1598:	362fffa0 	tbz	w0, #5, 158c <uart_puthex+0x34>
    159c:	528a0800 	mov	w0, #0x5040                	// #20544
    15a0:	72a7e420 	movk	w0, #0x3f21, lsl #16
    15a4:	2a1403e1 	mov	w1, w20
    15a8:	97fffea2 	bl	1030 <put32>
    15ac:	35fffe33 	cbnz	w19, 1570 <uart_puthex+0x18>
    15b0:	a94153f3 	ldp	x19, x20, [sp,#16]
    15b4:	f94013f5 	ldr	x21, [sp,#32]
    15b8:	a8c37bfd 	ldp	x29, x30, [sp],#48
    15bc:	d65f03c0 	ret

00000000000015c0 <uart_init>:
    15c0:	a9bd7bfd 	stp	x29, x30, [sp,#-48]!
    15c4:	529aca01 	mov	w1, #0xd650                	// #54864
    15c8:	910003fd 	mov	x29, sp
    15cc:	72a03b81 	movk	w1, #0x1dc, lsl #16
    15d0:	f9000bf3 	str	x19, [sp,#16]
    15d4:	1ac00833 	udiv	w19, w1, w0
    15d8:	97fffe8c 	bl	1008 <put32.constprop.2>
    15dc:	97fffe91 	bl	1020 <put32.constprop.5>
    15e0:	97fffe90 	bl	1020 <put32.constprop.5>
    15e4:	97fffe91 	bl	1028 <put32.constprop.6>
    15e8:	97fffe8e 	bl	1020 <put32.constprop.5>
    15ec:	97fffe8d 	bl	1020 <put32.constprop.5>
    15f0:	97fffe88 	bl	1010 <put32.constprop.3>
    15f4:	528a0d00 	mov	w0, #0x5068                	// #20584
    15f8:	51000661 	sub	w1, w19, #0x1
    15fc:	72a7e420 	movk	w0, #0x3f21, lsl #16
    1600:	97fffe8c 	bl	1030 <put32>
    1604:	52800080 	mov	w0, #0x4                   	// #4
    1608:	72a7e400 	movk	w0, #0x3f20, lsl #16
    160c:	97fffe8b 	bl	1038 <get32>
    1610:	b9002ba0 	str	w0, [x29,#40]
    1614:	52800080 	mov	w0, #0x4                   	// #4
    1618:	b9402ba1 	ldr	w1, [x29,#40]
    161c:	72a7e400 	movk	w0, #0x3f20, lsl #16
    1620:	12117021 	and	w1, w1, #0xffff8fff
    1624:	b9002ba1 	str	w1, [x29,#40]
    1628:	b9402ba1 	ldr	w1, [x29,#40]
    162c:	32130021 	orr	w1, w1, #0x2000
    1630:	b9002ba1 	str	w1, [x29,#40]
    1634:	b9402ba1 	ldr	w1, [x29,#40]
    1638:	97fffe7e 	bl	1030 <put32>
    163c:	52800080 	mov	w0, #0x4                   	// #4
    1640:	72a7e400 	movk	w0, #0x3f20, lsl #16
    1644:	97fffe7d 	bl	1038 <get32>
    1648:	b9002fa0 	str	w0, [x29,#44]
    164c:	52800080 	mov	w0, #0x4                   	// #4
    1650:	b9402fa1 	ldr	w1, [x29,#44]
    1654:	72a7e400 	movk	w0, #0x3f20, lsl #16
    1658:	120e7021 	and	w1, w1, #0xfffc7fff
    165c:	b9002fa1 	str	w1, [x29,#44]
    1660:	b9402fa1 	ldr	w1, [x29,#44]
    1664:	32100021 	orr	w1, w1, #0x10000
    1668:	b9002fa1 	str	w1, [x29,#44]
    166c:	b9402fa1 	ldr	w1, [x29,#44]
    1670:	97fffe70 	bl	1030 <put32>
    1674:	97fffe6b 	bl	1020 <put32.constprop.5>
    1678:	528012c0 	mov	w0, #0x96                  	// #150
    167c:	d503201f 	nop
    1680:	71000400 	subs	w0, w0, #0x1
    1684:	54ffffc1 	b.ne	167c <uart_init+0xbc>
    1688:	97fffe64 	bl	1018 <put32.constprop.4>
    168c:	528012c0 	mov	w0, #0x96                  	// #150
    1690:	d503201f 	nop
    1694:	71000400 	subs	w0, w0, #0x1
    1698:	54ffffc1 	b.ne	1690 <uart_init+0xd0>
    169c:	97fffe61 	bl	1020 <put32.constprop.5>
    16a0:	97fffe62 	bl	1028 <put32.constprop.6>
    16a4:	f9400bf3 	ldr	x19, [sp,#16]
    16a8:	a8c37bfd 	ldp	x29, x30, [sp],#48
    16ac:	d65f03c0 	ret

00000000000016b0 <c0_main>:
    16b0:	a9bf7bfd 	stp	x29, x30, [sp,#-16]!
    16b4:	52984000 	mov	w0, #0xc200                	// #49664
    16b8:	910003fd 	mov	x29, sp
    16bc:	72a00020 	movk	w0, #0x1, lsl #16
    16c0:	97ffffc0 	bl	15c0 <uart_init>
    16c4:	528a0a80 	mov	w0, #0x5054                	// #20564
    16c8:	72a7e420 	movk	w0, #0x3f21, lsl #16
    16cc:	97fffe5b 	bl	1038 <get32>
    16d0:	3607ffa0 	tbz	w0, #0, 16c4 <c0_main+0x14>
    16d4:	528a0800 	mov	w0, #0x5040                	// #20544
    16d8:	72a7e420 	movk	w0, #0x3f21, lsl #16
    16dc:	97fffe57 	bl	1038 <get32>
    16e0:	53001c00 	uxtb	w0, w0
    16e4:	7101581f 	cmp	w0, #0x56
    16e8:	54fffee1 	b.ne	16c4 <c0_main+0x14>
    16ec:	90000000 	adrp	x0, 1000 <_start>
    16f0:	911d6000 	add	x0, x0, #0x758
    16f4:	97ffff64 	bl	1484 <uart_puts>
    16f8:	90000001 	adrp	x1, 1000 <_start>
    16fc:	5280a080 	mov	w0, #0x504                 	// #1284
    1700:	91144021 	add	x1, x1, #0x510
    1704:	97fffe4b 	bl	1030 <put32>
    1708:	14000000 	b	1708 <c0_main+0x58>

Disassembly of section .rodata:

0000000000001710 <.rodata>:
    1710:	6c6c6548 	.word	0x6c6c6548
    1714:	7266206f 	.word	0x7266206f
    1718:	43206d6f 	.word	0x43206d6f
    171c:	2065726f 	.word	0x2065726f
    1720:	000a2133 	.word	0x000a2133
    1724:	00000000 	.word	0x00000000
    1728:	6c6c6548 	.word	0x6c6c6548
    172c:	7266206f 	.word	0x7266206f
    1730:	43206d6f 	.word	0x43206d6f
    1734:	2065726f 	.word	0x2065726f
    1738:	000a2132 	.word	0x000a2132
    173c:	00000000 	.word	0x00000000
    1740:	6c6c6548 	.word	0x6c6c6548
    1744:	7266206f 	.word	0x7266206f
    1748:	43206d6f 	.word	0x43206d6f
    174c:	2065726f 	.word	0x2065726f
    1750:	000a2131 	.word	0x000a2131
    1754:	00000000 	.word	0x00000000
    1758:	6c6c6548 	.word	0x6c6c6548
    175c:	7266206f 	.word	0x7266206f
    1760:	43206d6f 	.word	0x43206d6f
    1764:	2065726f 	.word	0x2065726f
    1768:	000a2130 	.word	0x000a2130
    176c:	00000000 	.word	0x00000000

Disassembly of section .comment:

0000000000000000 <.comment>:
   0:	3a434347 	ccmn	w26, w3, #0x7, mi
   4:	62552820 	.inst	0x62552820 ; undefined
   8:	75746e75 	.inst	0x75746e75 ; undefined
   c:	6e694c2f 	uqshl	v15.8h, v1.8h, v9.8h
  10:	206f7261 	.inst	0x206f7261 ; undefined
  14:	2e382e34 	uqsub	v20.8b, v17.8b, v24.8b
  18:	75322d34 	.inst	0x75322d34 ; undefined
  1c:	746e7562 	.inst	0x746e7562 ; undefined
  20:	317e3175 	adds	w21, w11, #0xf8c, lsl #12
  24:	34302e34 	cbz	w20, 605e8 <c0_main+0x5ef38>
  28:	2029312e 	.inst	0x2029312e ; undefined
  2c:	2e382e34 	uqsub	v20.8b, v17.8b, v24.8b
  30:	Address 0x0000000000000030 is out of bounds.

